target datalayout = "e-m:e-p270:32:32-p271:32:32-p272:64:64-i64:64-i128:128-f80:128-n8:16:32:64-S128"
target triple = "x86_64-pc-linux-gnu"

%struct.timespec = type { i64, i64 }
%struct.conmgr_callbacks_t = type { ptr, ptr }
%union.pthread_mutex_t = type { %struct.__pthread_mutex_s }
%struct.__pthread_mutex_s = type { i32, i32, i32, i32, i32, i16, i16, %struct.__pthread_internal_list }
%struct.__pthread_internal_list = type { ptr, ptr }
%struct.event_signal_t = type { ptr, %union.pthread_cond_t, i32, i32 }
%union.pthread_cond_t = type { %struct.__pthread_cond_s }
%struct.__pthread_cond_s = type { %union.__atomic_wide_counter, %union.__atomic_wide_counter, [2 x i32], [2 x i32], i32, i32, [2 x i32] }
%union.__atomic_wide_counter = type { i64 }
%struct.slurm_conf_t = type { i64, ptr, i16, ptr, ptr, ptr, ptr, ptr, i16, ptr, ptr, ptr, ptr, ptr, ptr, ptr, i16, ptr, ptr, ptr, ptr, i16, ptr, ptr, ptr, i64, ptr, ptr, ptr, ptr, i16, ptr, ptr, i16, i32, ptr, i32, ptr, i32, i32, ptr, ptr, i64, i64, ptr, i16, i16, ptr, i32, i32, ptr, i32, ptr, i32, i16, i16, i16, ptr, i16, i16, ptr, ptr, i32, i16, i16, ptr, i32, i16, ptr, ptr, ptr, ptr, i16, ptr, ptr, ptr, ptr, i32, ptr, ptr, ptr, ptr, i16, i16, ptr, i32, i32, i32, i16, i16, ptr, ptr, i16, ptr, ptr, i32, i32, i32, i32, i32, i64, i32, i32, i16, ptr, ptr, i32, ptr, ptr, ptr, i16, i32, ptr, ptr, i16, ptr, ptr, i32, i16, ptr, ptr, ptr, ptr, i32, i32, i16, i16, i32, ptr, i16, ptr, i32, i32, i32, i32, i32, i32, ptr, i16, ptr, ptr, i32, i16, ptr, i32, i16, i16, ptr, ptr, ptr, i16, ptr, ptr, ptr, ptr, i16, i16, ptr, i16, ptr, i16, ptr, i16, ptr, i16, ptr, ptr, ptr, ptr, i16, ptr, ptr, ptr, i32, ptr, i32, ptr, ptr, i16, ptr, ptr, i32, i16, ptr, ptr, i16, i16, ptr, i16, ptr, ptr, ptr, i32, ptr, i16, i16, ptr, ptr, ptr, ptr, ptr, ptr, ptr, ptr, i16, i32, i16, ptr, ptr, ptr, ptr, i32, ptr, ptr, ptr, i16, ptr, ptr, ptr, i16, ptr, i16, ptr, i16, i16, ptr }
%struct.conmgr_t = type { i32, i32, %struct.timespec, %struct.timespec, %struct.timespec, i32, ptr, ptr, ptr, i8, i8, i64, %struct.timespec, i8, i8, i8, i8, i8, i32, ptr, ptr, %struct.conmgr_callbacks_t, %union.pthread_mutex_t, %struct.anon, %struct.anon.1, %struct.event_signal_t, %struct.event_signal_t, %struct.event_signal_t, %struct.event_signal_t }
%struct.anon = type { i32, ptr, i32, i32, i8, i32 }
%struct.anon.1 = type { i8, i8, %struct.event_signal_t, %struct.event_signal_t }

@.str.6 = private unnamed_addr constant [29 x i8] c"%s: pthread_mutex_lock(): %m\00", align 1
@.str.9 = private unnamed_addr constant [31 x i8] c"%s: pthread_mutex_unlock(): %m\00", align 1
@slurm_conf = external global %struct.slurm_conf_t, align 8
@enabled_init = internal global i32 0, align 4
@enabled_status = internal global i8 0, align 1
@__func__.conmgr_enabled = private unnamed_addr constant [15 x i8] c"conmgr_enabled\00", align 1
@.str.19 = private unnamed_addr constant [23 x i8] c"CONMGR: %s: enabled=%c\00", align 1

; Function Attrs: nounwind uwtable
define dso_local zeroext i1 @conmgr_enabled() #0 {
  %1 = alloca i1, align 1
  %2 = alloca i32, align 4
  %3 = alloca i32, align 4
  %4 = load i32, ptr @enabled_init, align 4
  %5 = icmp ne i32 %4, 0
  br i1 %5, label %6, label %9

6:                                                ; preds = %0
  %7 = load i8, ptr @enabled_status, align 1, !range !8, !noundef !9
  %8 = trunc i8 %7 to i1
  store i1 %8, ptr %1, align 1
  br label %54

9:                                                ; preds = %0
  br label %10

10:                                               ; preds = %9
  call void @llvm.lifetime.start.p0(i64 4, ptr %2) #8
  %11 = call i32 @pthread_mutex_lock(ptr noundef getelementptr inbounds nuw (%struct.conmgr_t, ptr @mgr, i32 0, i32 22)) #8
  store i32 %11, ptr %2, align 4
  %12 = load i32, ptr %2, align 4
  %13 = icmp ne i32 %12, 0
  br i1 %13, label %14, label %17

14:                                               ; preds = %10
  %15 = load i32, ptr %2, align 4
  %16 = call ptr @__errno_location() #9
  store i32 %15, ptr %16, align 4
  call void (ptr, ...) @fatal_abort(ptr noundef @.str.6, ptr noundef @__func__.conmgr_enabled) #10
  unreachable

17:                                               ; preds = %10
  call void @llvm.lifetime.end.p0(i64 4, ptr %2) #8
  br label %18

18:                                               ; preds = %17
  %19 = load i8, ptr getelementptr inbounds nuw (%struct.conmgr_t, ptr @mgr, i32 0, i32 10), align 1, !range !8, !noundef !9
  %20 = trunc i8 %19 to i1
  br i1 %20, label %24, label %21

21:                                               ; preds = %18
  %22 = load i8, ptr getelementptr inbounds nuw (%struct.conmgr_t, ptr @mgr, i32 0, i32 9), align 8, !range !8, !noundef !9
  %23 = trunc i8 %22 to i1
  br label %24

24:                                               ; preds = %21, %18
  %25 = phi i1 [ true, %18 ], [ %23, %21 ]
  %26 = zext i1 %25 to i8
  store i8 %26, ptr @enabled_status, align 1
  br label %27

27:                                               ; preds = %24
  call void @llvm.lifetime.start.p0(i64 4, ptr %3) #8
  %28 = call i32 @pthread_mutex_unlock(ptr noundef getelementptr inbounds nuw (%struct.conmgr_t, ptr @mgr, i32 0, i32 22)) #8
  store i32 %28, ptr %3, align 4
  %29 = load i32, ptr %3, align 4
  %30 = icmp ne i32 %29, 0
  br i1 %30, label %31, label %34

31:                                               ; preds = %27
  %32 = load i32, ptr %3, align 4
  %33 = call ptr @__errno_location() #9
  store i32 %32, ptr %33, align 4
  call void (ptr, ...) @fatal_abort(ptr noundef @.str.9, ptr noundef @__func__.conmgr_enabled) #10
  unreachable

34:                                               ; preds = %27
  call void @llvm.lifetime.end.p0(i64 4, ptr %3) #8
  br label %35

35:                                               ; preds = %34
  br label %36

36:                                               ; preds = %35
  %37 = load i64, ptr getelementptr inbounds nuw (%struct.slurm_conf_t, ptr @slurm_conf, i32 0, i32 42), align 8
  %38 = and i64 %37, 512
  %39 = icmp ne i64 %38, 0
  br i1 %39, label %40, label %50

40:                                               ; preds = %36
  br label %41

41:                                               ; preds = %40
  %42 = call i32 @get_log_level()
  %43 = icmp sge i32 %42, 4
  br i1 %43, label %44, label %48

44:                                               ; preds = %41
  %45 = load i8, ptr @enabled_status, align 1, !range !8, !noundef !9
  %46 = trunc i8 %45 to i1
  %47 = select i1 %46, i32 84, i32 70
  call void (i32, ptr, ...) @log_var(i32 noundef 4, ptr noundef @.str.19, ptr noundef @__func__.conmgr_enabled, i32 noundef %47)
  br label %48

48:                                               ; preds = %44, %41
  br label %49

49:                                               ; preds = %48
  br label %50

50:                                               ; preds = %49, %36
  br label %51

51:                                               ; preds = %50
  store i32 1, ptr @enabled_init, align 4
  %52 = load i8, ptr @enabled_status, align 1, !range !8, !noundef !9
  %53 = trunc i8 %52 to i1
  store i1 %53, ptr %1, align 1
  br label %54

54:                                               ; preds = %51, %6
  %55 = load i1, ptr %1, align 1
  ret i1 %55
}