; Function Attrs: nounwind uwtable
define dso_local zeroext i1 @conmgr_enabled() local_unnamed_addr #0 {
  %.b = load i1, ptr @enabled_init, align 4
  br i1 %.b, label %24, label %1

1:                                                ; preds = %0
  %2 = tail call i32 @pthread_mutex_lock(ptr noundef nonnull getelementptr inbounds nuw (i8, ptr @mgr, i64 168)) #11
  %.not = icmp eq i32 %2, 0
  br i1 %.not, label %5, label %3

3:                                                ; preds = %1
  %4 = tail call ptr @__errno_location() #12
  store i32 %2, ptr %4, align 4
  tail call void (ptr, ...) @fatal_abort(ptr noundef nonnull @.str.6, ptr noundef nonnull @__func__.conmgr_enabled) #13
  unreachable

5:                                                ; preds = %1
  %6 = load i8, ptr getelementptr inbounds nuw (i8, ptr @mgr, i64 89), align 1, !range !8, !noundef !9
  %7 = trunc nuw i8 %6 to i1
  %8 = load i8, ptr getelementptr inbounds nuw (i8, ptr @mgr, i64 88), align 8, !range !8
  %9 = select i1 %7, i8 1, i8 %8
  store i8 %9, ptr @enabled_status, align 1
  %10 = tail call i32 @pthread_mutex_unlock(ptr noundef nonnull getelementptr inbounds nuw (i8, ptr @mgr, i64 168)) #11
  %.not6 = icmp eq i32 %10, 0
  br i1 %.not6, label %13, label %11

11:                                               ; preds = %5
  %12 = tail call ptr @__errno_location() #12
  store i32 %10, ptr %12, align 4
  tail call void (ptr, ...) @fatal_abort(ptr noundef nonnull @.str.9, ptr noundef nonnull @__func__.conmgr_enabled) #13
  unreachable

13:                                               ; preds = %5
  %14 = load i64, ptr getelementptr inbounds nuw (i8, ptr @slurm_conf, i64 320), align 8
  %15 = and i64 %14, 512
  %.not7 = icmp eq i64 %15, 0
  br i1 %.not7, label %23, label %16

16:                                               ; preds = %13
  %17 = tail call i32 @get_log_level() #11
  %18 = icmp sgt i32 %17, 3
  br i1 %18, label %19, label %23

19:                                               ; preds = %16
  %20 = load i8, ptr @enabled_status, align 1, !range !8, !noundef !9
  %21 = trunc nuw i8 %20 to i1
  %22 = select i1 %21, i32 84, i32 70
  tail call void (i32, ptr, ...) @log_var(i32 noundef 4, ptr noundef nonnull @.str.19, ptr noundef nonnull @__func__.conmgr_enabled, i32 noundef %22) #11
  br label %23

23:                                               ; preds = %13, %16, %19
  store i1 true, ptr @enabled_init, align 4
  br label %24

24:                                               ; preds = %0, %23
  %.0.in = load i8, ptr @enabled_status, align 1, !range !8, !noundef !9
  %.0 = trunc nuw i8 %.0.in to i1
  ret i1 %.0
}